; Function Attrs: mustprogress uwtable
define noundef i64 @_ZN5boost10test_tools18output_test_stream6lengthEv(ptr noundef nonnull align 8 dereferenceable(120) %0) local_unnamed_addr #3 align 2 {
  %2 = load ptr, ptr %0, align 8, !tbaa !3
  %3 = getelementptr inbounds i8, ptr %2, i64 56
  %4 = load ptr, ptr %3, align 8
  tail call void %4(ptr noundef nonnull align 8 dereferenceable(120) %0)
  %5 = getelementptr inbounds nuw i8, ptr %0, i64 112
  %6 = load ptr, ptr %5, align 8, !tbaa !130
  %7 = getelementptr inbounds nuw i8, ptr %6, i64 544
  %8 = load i64, ptr %7, align 8, !tbaa !22
  ret i64 %8
}